target datalayout = "e-m:e-p270:32:32-p271:32:32-p272:64:64-i64:64-i128:128-f80:128-n8:16:32:64-S128"
target triple = "x86_64-pc-linux-gnu"

%struct.anon = type { [10 x [10 x ptr]], [10 x [10 x ptr]], [10 x [10 x ptr]], double, double, double, double, double, double, double }

; Function Attrs: nounwind uwtable
define internal ptr @AllocUserData() #0 {
  %1 = alloca i32, align 4
  %2 = alloca i32, align 4
  %3 = alloca ptr, align 8
  call void @llvm.lifetime.start.p0(i64 4, ptr %1) #7
  call void @llvm.lifetime.start.p0(i64 4, ptr %2) #7
  call void @llvm.lifetime.start.p0(i64 8, ptr %3) #7
  %4 = call noalias ptr @malloc(i64 noundef 2456) #9
  store ptr %4, ptr %3, align 8, !tbaa !15
  store i32 0, ptr %1, align 4, !tbaa !4
  br label %5

5:                                                ; preds = %44, %0
  %6 = load i32, ptr %1, align 4, !tbaa !4
  %7 = icmp slt i32 %6, 10
  br i1 %7, label %8, label %47

8:                                                ; preds = %5
  store i32 0, ptr %2, align 4, !tbaa !4
  br label %9

9:                                                ; preds = %40, %8
  %10 = load i32, ptr %2, align 4, !tbaa !4
  %11 = icmp slt i32 %10, 10
  br i1 %11, label %12, label %43

12:                                               ; preds = %9
  %13 = call ptr @SUNDlsMat_newDenseMat(i64 noundef 2, i64 noundef 2)
  %14 = load ptr, ptr %3, align 8, !tbaa !15
  %15 = getelementptr inbounds nuw %struct.anon, ptr %14, i32 0, i32 0
  %16 = load i32, ptr %1, align 4, !tbaa !4
  %17 = sext i32 %16 to i64
  %18 = getelementptr inbounds [10 x [10 x ptr]], ptr %15, i64 0, i64 %17
  %19 = load i32, ptr %2, align 4, !tbaa !4
  %20 = sext i32 %19 to i64
  %21 = getelementptr inbounds [10 x ptr], ptr %18, i64 0, i64 %20
  store ptr %13, ptr %21, align 8, !tbaa !33
  %22 = call ptr @SUNDlsMat_newDenseMat(i64 noundef 2, i64 noundef 2)
  %23 = load ptr, ptr %3, align 8, !tbaa !15
  %24 = getelementptr inbounds nuw %struct.anon, ptr %23, i32 0, i32 1
  %25 = load i32, ptr %1, align 4, !tbaa !4
  %26 = sext i32 %25 to i64
  %27 = getelementptr inbounds [10 x [10 x ptr]], ptr %24, i64 0, i64 %26
  %28 = load i32, ptr %2, align 4, !tbaa !4
  %29 = sext i32 %28 to i64
  %30 = getelementptr inbounds [10 x ptr], ptr %27, i64 0, i64 %29
  store ptr %22, ptr %30, align 8, !tbaa !33
  %31 = call ptr @SUNDlsMat_newIndexArray(i64 noundef 2)
  %32 = load ptr, ptr %3, align 8, !tbaa !15
  %33 = getelementptr inbounds nuw %struct.anon, ptr %32, i32 0, i32 2
  %34 = load i32, ptr %1, align 4, !tbaa !4
  %35 = sext i32 %34 to i64
  %36 = getelementptr inbounds [10 x [10 x ptr]], ptr %33, i64 0, i64 %35
  %37 = load i32, ptr %2, align 4, !tbaa !4
  %38 = sext i32 %37 to i64
  %39 = getelementptr inbounds [10 x ptr], ptr %36, i64 0, i64 %38
  store ptr %31, ptr %39, align 8, !tbaa !35
  br label %40

40:                                               ; preds = %12
  %41 = load i32, ptr %2, align 4, !tbaa !4
  %42 = add nsw i32 %41, 1
  store i32 %42, ptr %2, align 4, !tbaa !4
  br label %9

43:                                               ; preds = %9
  br label %44

44:                                               ; preds = %43
  %45 = load i32, ptr %1, align 4, !tbaa !4
  %46 = add nsw i32 %45, 1
  store i32 %46, ptr %1, align 4, !tbaa !4
  br label %5

47:                                               ; preds = %5
  %48 = load ptr, ptr %3, align 8, !tbaa !15
  call void @llvm.lifetime.end.p0(i64 8, ptr %3) #7
  call void @llvm.lifetime.end.p0(i64 4, ptr %2) #7
  call void @llvm.lifetime.end.p0(i64 4, ptr %1) #7
  ret ptr %48
}